target datalayout = "e-m:e-p270:32:32-p271:32:32-p272:64:64-i64:64-i128:128-f80:128-n8:16:32:64-S128"
target triple = "x86_64-pc-linux-gnu"

%struct.jit_descriptor = type { i32, i32, ptr, ptr }
%struct.DebugFrameFDEHeader = type { i32, i32, i64, i64 }
%struct.elf64_phdr = type { i32, i32, i64, i64, i64, i64, i64, i64 }
%struct.elf64_shdr = type { i32, i32, i64, i64, i64, i64, i32, i32, i64, i64 }
%struct.elf64_sym = type { i32, i8, i8, i16, i64, i64 }
%struct.DebugInfo = type <{ i32, i16, i32, i8, i8, i16, i64, i64, i8, [16 x i8], i64, i64, i8 }>
%struct.jit_code_entry = type { ptr, ptr, ptr, i64 }
%struct.ElfImage = type { %struct.elf64_hdr, %struct.elf64_phdr, [7 x %struct.elf64_shdr], [2 x %struct.elf64_sym], %struct.DebugInfo, [24 x i8], [80 x i8] }
%struct.elf64_hdr = type { [16 x i8], i16, i16, i32, i64, i64, i64, i32, i16, i16, i16, i16, i16, i16 }
%struct.DebugFrameHeader = type { %struct.DebugFrameCIE, %struct.DebugFrameFDEHeader }
%struct.DebugFrameCIE = type { i32, i32, i8, [1 x i8], i8, i8, i8 }

@__jit_debug_descriptor = dso_local global %struct.jit_descriptor { i32 1, i32 0, ptr null, ptr null }, align 8
@tcg_register_jit_int.one_entry = internal global %struct.jit_code_entry zeroinitializer, align 8
@.str.140 = private unnamed_addr constant [6 x i8] c".text\00", align 1
@.str.141 = private unnamed_addr constant [12 x i8] c".debug_info\00", align 1
@.str.142 = private unnamed_addr constant [14 x i8] c".debug_abbrev\00", align 1
@.str.143 = private unnamed_addr constant [13 x i8] c".debug_frame\00", align 1
@.str.144 = private unnamed_addr constant [8 x i8] c".symtab\00", align 1
@.str.145 = private unnamed_addr constant [8 x i8] c".strtab\00", align 1
@.str.146 = private unnamed_addr constant [16 x i8] c"code_gen_buffer\00", align 1

; Function Attrs: alwaysinline nounwind
define internal ptr @memcpy.inline(ptr noalias nonnull %0, ptr noalias nonnull %1, i64 %2) #4 {
  %4 = alloca ptr, align 8
  %5 = alloca ptr, align 8
  %6 = alloca i64, align 8
  store ptr %0, ptr %4, align 8
  store ptr %1, ptr %5, align 8
  store i64 %2, ptr %6, align 8
  %7 = load ptr, ptr %4, align 8
  %8 = load ptr, ptr %5, align 8
  %9 = load i64, ptr %6, align 8
  %10 = load ptr, ptr %4, align 8
  %11 = call i64 @llvm.objectsize.i64.p0(ptr %10, i1 false, i1 true, i1 false)
  %12 = call ptr @__memcpy_chk(ptr noundef %7, ptr noundef %8, i64 noundef %9, i64 noundef %11) #19
  ret ptr %12
}

; Function Attrs: nounwind sspstrong uwtable
define internal i32 @find_string(ptr noundef %0, ptr noundef %1) #0 {
  %3 = alloca ptr, align 8
  %4 = alloca ptr, align 8
  %5 = alloca ptr, align 8
  store ptr %0, ptr %3, align 8
  store ptr %1, ptr %4, align 8
  call void @llvm.lifetime.start.p0(i64 8, ptr %5) #19
  %6 = load ptr, ptr %3, align 8
  %7 = getelementptr inbounds i8, ptr %6, i64 1
  store ptr %7, ptr %5, align 8
  br label %8

8:                                                ; preds = %21, %2
  br label %9

9:                                                ; preds = %8
  %10 = load ptr, ptr %5, align 8
  %11 = load ptr, ptr %4, align 8
  %12 = call i32 @strcmp(ptr noundef %10, ptr noundef %11) #23
  %13 = icmp eq i32 %12, 0
  br i1 %13, label %14, label %21

14:                                               ; preds = %9
  %15 = load ptr, ptr %5, align 8
  %16 = load ptr, ptr %3, align 8
  %17 = ptrtoint ptr %15 to i64
  %18 = ptrtoint ptr %16 to i64
  %19 = sub i64 %17, %18
  %20 = trunc i64 %19 to i32
  call void @llvm.lifetime.end.p0(i64 8, ptr %5) #19
  ret i32 %20

21:                                               ; preds = %9
  %22 = load ptr, ptr %5, align 8
  %23 = call i64 @strlen(ptr noundef %22) #23
  %24 = add i64 %23, 1
  %25 = load ptr, ptr %5, align 8
  %26 = getelementptr inbounds nuw i8, ptr %25, i64 %24
  store ptr %26, ptr %5, align 8
  br label %8
}

; Function Attrs: nounwind sspstrong uwtable
define internal void @tcg_register_jit_int(ptr noundef %0, i64 noundef %1, ptr noundef %2, i64 noundef %3) #0 {
  %5 = alloca ptr, align 8
  %6 = alloca i64, align 8
  %7 = alloca ptr, align 8
  %8 = alloca i64, align 8
  %9 = alloca ptr, align 8
  %10 = alloca i64, align 8
  %11 = alloca i64, align 8
  %12 = alloca ptr, align 8
  store ptr %0, ptr %5, align 8
  store i64 %1, ptr %6, align 8
  store ptr %2, ptr %7, align 8
  store i64 %3, ptr %8, align 8
  call void @llvm.lifetime.start.p0(i64 8, ptr %9) #19
  store ptr null, ptr %9, align 8, !annotation !4
  call void @llvm.lifetime.start.p0(i64 8, ptr %10) #19
  %13 = load ptr, ptr %5, align 8
  %14 = ptrtoint ptr %13 to i64
  store i64 %14, ptr %10, align 8
  call void @llvm.lifetime.start.p0(i64 8, ptr %11) #19
  %15 = load i64, ptr %8, align 8
  %16 = add i64 784, %15
  store i64 %16, ptr %11, align 8
  call void @llvm.lifetime.start.p0(i64 8, ptr %12) #19
  store ptr null, ptr %12, align 8, !annotation !4
  %17 = load i64, ptr %11, align 8
  %18 = call noalias ptr @g_malloc(i64 noundef %17) #21
  store ptr %18, ptr %9, align 8
  %19 = load ptr, ptr %9, align 8
  call void @llvm.memcpy.p0.p0.i64(ptr align 8 %19, ptr align 8 @tcg_register_jit_int.img_template, i64 784, i1 false)
  %20 = load i64, ptr %10, align 8
  %21 = load ptr, ptr %9, align 8
  %22 = getelementptr inbounds nuw %struct.ElfImage, ptr %21, i32 0, i32 1
  %23 = getelementptr inbounds nuw %struct.elf64_phdr, ptr %22, i32 0, i32 3
  store i64 %20, ptr %23, align 8
  %24 = load i64, ptr %10, align 8
  %25 = load ptr, ptr %9, align 8
  %26 = getelementptr inbounds nuw %struct.ElfImage, ptr %25, i32 0, i32 1
  %27 = getelementptr inbounds nuw %struct.elf64_phdr, ptr %26, i32 0, i32 4
  store i64 %24, ptr %27, align 8
  %28 = load i64, ptr %6, align 8
  %29 = load ptr, ptr %9, align 8
  %30 = getelementptr inbounds nuw %struct.ElfImage, ptr %29, i32 0, i32 1
  %31 = getelementptr inbounds nuw %struct.elf64_phdr, ptr %30, i32 0, i32 6
  store i64 %28, ptr %31, align 8
  %32 = load ptr, ptr %9, align 8
  %33 = getelementptr inbounds nuw %struct.ElfImage, ptr %32, i32 0, i32 6
  %34 = getelementptr inbounds [80 x i8], ptr %33, i64 0, i64 0
  %35 = call i32 @find_string(ptr noundef %34, ptr noundef @.str.140)
  %36 = load ptr, ptr %9, align 8
  %37 = getelementptr inbounds nuw %struct.ElfImage, ptr %36, i32 0, i32 2
  %38 = getelementptr inbounds [7 x %struct.elf64_shdr], ptr %37, i64 0, i64 1
  %39 = getelementptr inbounds nuw %struct.elf64_shdr, ptr %38, i32 0, i32 0
  store i32 %35, ptr %39, align 8
  %40 = load i64, ptr %10, align 8
  %41 = load ptr, ptr %9, align 8
  %42 = getelementptr inbounds nuw %struct.ElfImage, ptr %41, i32 0, i32 2
  %43 = getelementptr inbounds [7 x %struct.elf64_shdr], ptr %42, i64 0, i64 1
  %44 = getelementptr inbounds nuw %struct.elf64_shdr, ptr %43, i32 0, i32 3
  store i64 %40, ptr %44, align 8
  %45 = load i64, ptr %6, align 8
  %46 = load ptr, ptr %9, align 8
  %47 = getelementptr inbounds nuw %struct.ElfImage, ptr %46, i32 0, i32 2
  %48 = getelementptr inbounds [7 x %struct.elf64_shdr], ptr %47, i64 0, i64 1
  %49 = getelementptr inbounds nuw %struct.elf64_shdr, ptr %48, i32 0, i32 5
  store i64 %45, ptr %49, align 8
  %50 = load ptr, ptr %9, align 8
  %51 = getelementptr inbounds nuw %struct.ElfImage, ptr %50, i32 0, i32 6
  %52 = getelementptr inbounds [80 x i8], ptr %51, i64 0, i64 0
  %53 = call i32 @find_string(ptr noundef %52, ptr noundef @.str.141)
  %54 = load ptr, ptr %9, align 8
  %55 = getelementptr inbounds nuw %struct.ElfImage, ptr %54, i32 0, i32 2
  %56 = getelementptr inbounds [7 x %struct.elf64_shdr], ptr %55, i64 0, i64 2
  %57 = getelementptr inbounds nuw %struct.elf64_shdr, ptr %56, i32 0, i32 0
  store i32 %53, ptr %57, align 8
  %58 = load ptr, ptr %9, align 8
  %59 = getelementptr inbounds nuw %struct.ElfImage, ptr %58, i32 0, i32 6
  %60 = getelementptr inbounds [80 x i8], ptr %59, i64 0, i64 0
  %61 = call i32 @find_string(ptr noundef %60, ptr noundef @.str.142)
  %62 = load ptr, ptr %9, align 8
  %63 = getelementptr inbounds nuw %struct.ElfImage, ptr %62, i32 0, i32 2
  %64 = getelementptr inbounds [7 x %struct.elf64_shdr], ptr %63, i64 0, i64 3
  %65 = getelementptr inbounds nuw %struct.elf64_shdr, ptr %64, i32 0, i32 0
  store i32 %61, ptr %65, align 8
  %66 = load ptr, ptr %9, align 8
  %67 = getelementptr inbounds nuw %struct.ElfImage, ptr %66, i32 0, i32 6
  %68 = getelementptr inbounds [80 x i8], ptr %67, i64 0, i64 0
  %69 = call i32 @find_string(ptr noundef %68, ptr noundef @.str.143)
  %70 = load ptr, ptr %9, align 8
  %71 = getelementptr inbounds nuw %struct.ElfImage, ptr %70, i32 0, i32 2
  %72 = getelementptr inbounds [7 x %struct.elf64_shdr], ptr %71, i64 0, i64 4
  %73 = getelementptr inbounds nuw %struct.elf64_shdr, ptr %72, i32 0, i32 0
  store i32 %69, ptr %73, align 8
  %74 = load i64, ptr %8, align 8
  %75 = load ptr, ptr %9, align 8
  %76 = getelementptr inbounds nuw %struct.ElfImage, ptr %75, i32 0, i32 2
  %77 = getelementptr inbounds [7 x %struct.elf64_shdr], ptr %76, i64 0, i64 4
  %78 = getelementptr inbounds nuw %struct.elf64_shdr, ptr %77, i32 0, i32 5
  store i64 %74, ptr %78, align 8
  %79 = load ptr, ptr %9, align 8
  %80 = getelementptr inbounds nuw %struct.ElfImage, ptr %79, i32 0, i32 6
  %81 = getelementptr inbounds [80 x i8], ptr %80, i64 0, i64 0
  %82 = call i32 @find_string(ptr noundef %81, ptr noundef @.str.144)
  %83 = load ptr, ptr %9, align 8
  %84 = getelementptr inbounds nuw %struct.ElfImage, ptr %83, i32 0, i32 2
  %85 = getelementptr inbounds [7 x %struct.elf64_shdr], ptr %84, i64 0, i64 5
  %86 = getelementptr inbounds nuw %struct.elf64_shdr, ptr %85, i32 0, i32 0
  store i32 %82, ptr %86, align 8
  %87 = load ptr, ptr %9, align 8
  %88 = getelementptr inbounds nuw %struct.ElfImage, ptr %87, i32 0, i32 6
  %89 = getelementptr inbounds [80 x i8], ptr %88, i64 0, i64 0
  %90 = call i32 @find_string(ptr noundef %89, ptr noundef @.str.145)
  %91 = load ptr, ptr %9, align 8
  %92 = getelementptr inbounds nuw %struct.ElfImage, ptr %91, i32 0, i32 2
  %93 = getelementptr inbounds [7 x %struct.elf64_shdr], ptr %92, i64 0, i64 6
  %94 = getelementptr inbounds nuw %struct.elf64_shdr, ptr %93, i32 0, i32 0
  store i32 %90, ptr %94, align 8
  %95 = load ptr, ptr %9, align 8
  %96 = getelementptr inbounds nuw %struct.ElfImage, ptr %95, i32 0, i32 6
  %97 = getelementptr inbounds [80 x i8], ptr %96, i64 0, i64 0
  %98 = call i32 @find_string(ptr noundef %97, ptr noundef @.str.146)
  %99 = load ptr, ptr %9, align 8
  %100 = getelementptr inbounds nuw %struct.ElfImage, ptr %99, i32 0, i32 3
  %101 = getelementptr inbounds [2 x %struct.elf64_sym], ptr %100, i64 0, i64 1
  %102 = getelementptr inbounds nuw %struct.elf64_sym, ptr %101, i32 0, i32 0
  store i32 %98, ptr %102, align 8
  %103 = load i64, ptr %10, align 8
  %104 = load ptr, ptr %9, align 8
  %105 = getelementptr inbounds nuw %struct.ElfImage, ptr %104, i32 0, i32 3
  %106 = getelementptr inbounds [2 x %struct.elf64_sym], ptr %105, i64 0, i64 1
  %107 = getelementptr inbounds nuw %struct.elf64_sym, ptr %106, i32 0, i32 4
  store i64 %103, ptr %107, align 8
  %108 = load i64, ptr %6, align 8
  %109 = load ptr, ptr %9, align 8
  %110 = getelementptr inbounds nuw %struct.ElfImage, ptr %109, i32 0, i32 3
  %111 = getelementptr inbounds [2 x %struct.elf64_sym], ptr %110, i64 0, i64 1
  %112 = getelementptr inbounds nuw %struct.elf64_sym, ptr %111, i32 0, i32 5
  store i64 %108, ptr %112, align 8
  %113 = load i64, ptr %10, align 8
  %114 = load ptr, ptr %9, align 8
  %115 = getelementptr inbounds nuw %struct.ElfImage, ptr %114, i32 0, i32 4
  %116 = getelementptr inbounds nuw %struct.DebugInfo, ptr %115, i32 0, i32 6
  store i64 %113, ptr %116, align 2
  %117 = load i64, ptr %10, align 8
  %118 = load i64, ptr %6, align 8
  %119 = add i64 %117, %118
  %120 = load ptr, ptr %9, align 8
  %121 = getelementptr inbounds nuw %struct.ElfImage, ptr %120, i32 0, i32 4
  %122 = getelementptr inbounds nuw %struct.DebugInfo, ptr %121, i32 0, i32 7
  store i64 %119, ptr %122, align 2
  %123 = load i64, ptr %10, align 8
  %124 = load ptr, ptr %9, align 8
  %125 = getelementptr inbounds nuw %struct.ElfImage, ptr %124, i32 0, i32 4
  %126 = getelementptr inbounds nuw %struct.DebugInfo, ptr %125, i32 0, i32 10
  store i64 %123, ptr %126, align 1
  %127 = load i64, ptr %10, align 8
  %128 = load i64, ptr %6, align 8
  %129 = add i64 %127, %128
  %130 = load ptr, ptr %9, align 8
  %131 = getelementptr inbounds nuw %struct.ElfImage, ptr %130, i32 0, i32 4
  %132 = getelementptr inbounds nuw %struct.DebugInfo, ptr %131, i32 0, i32 11
  store i64 %129, ptr %132, align 1
  %133 = load ptr, ptr %9, align 8
  %134 = getelementptr inbounds %struct.ElfImage, ptr %133, i64 1
  store ptr %134, ptr %12, align 8
  %135 = load ptr, ptr %12, align 8
  %136 = load ptr, ptr %7, align 8
  %137 = load i64, ptr %8, align 8
  %138 = call ptr @memcpy.inline(ptr noundef %135, ptr noundef %136, i64 noundef %137) #19
  %139 = load i64, ptr %10, align 8
  %140 = load ptr, ptr %12, align 8
  %141 = getelementptr inbounds nuw %struct.DebugFrameHeader, ptr %140, i32 0, i32 1
  %142 = getelementptr inbounds nuw %struct.DebugFrameFDEHeader, ptr %141, i32 0, i32 2
  store i64 %139, ptr %142, align 1
  %143 = load i64, ptr %6, align 8
  %144 = load ptr, ptr %12, align 8
  %145 = getelementptr inbounds nuw %struct.DebugFrameHeader, ptr %144, i32 0, i32 1
  %146 = getelementptr inbounds nuw %struct.DebugFrameFDEHeader, ptr %145, i32 0, i32 3
  store i64 %143, ptr %146, align 1
  %147 = load ptr, ptr %9, align 8
  store ptr %147, ptr getelementptr inbounds nuw (%struct.jit_code_entry, ptr @tcg_register_jit_int.one_entry, i32 0, i32 2), align 8
  %148 = load i64, ptr %11, align 8
  store i64 %148, ptr getelementptr inbounds nuw (%struct.jit_code_entry, ptr @tcg_register_jit_int.one_entry, i32 0, i32 3), align 8
  store i32 1, ptr getelementptr inbounds nuw (%struct.jit_descriptor, ptr @__jit_debug_descriptor, i32 0, i32 1), align 4
  store ptr @tcg_register_jit_int.one_entry, ptr getelementptr inbounds nuw (%struct.jit_descriptor, ptr @__jit_debug_descriptor, i32 0, i32 2), align 8
  store ptr @tcg_register_jit_int.one_entry, ptr getelementptr inbounds nuw (%struct.jit_descriptor, ptr @__jit_debug_descriptor, i32 0, i32 3), align 8
  call void @__jit_debug_register_code()
  call void @llvm.lifetime.end.p0(i64 8, ptr %12) #19
  call void @llvm.lifetime.end.p0(i64 8, ptr %11) #19
  call void @llvm.lifetime.end.p0(i64 8, ptr %10) #19
  call void @llvm.lifetime.end.p0(i64 8, ptr %9) #19
  ret void
}

; Function Attrs: nounwind sspstrong uwtable
define dso_local void @tcg_register_jit(ptr noundef %0, i64 noundef %1) #0 {
  %3 = alloca ptr, align 8
  %4 = alloca i64, align 8
  store ptr %0, ptr %3, align 8
  store i64 %1, ptr %4, align 8
  %5 = load ptr, ptr %3, align 8
  %6 = load i64, ptr %4, align 8
  call void @tcg_register_jit_int(ptr noundef %5, i64 noundef %6, ptr noundef @debug_frame, i64 noundef 58)
  ret void
}