; Function Attrs: nounwind sspstrong uwtable
define dso_local void @tcg_register_jit(ptr noundef %0, i64 noundef %1) local_unnamed_addr #0 {
  %3 = ptrtoint ptr %0 to i64
  %4 = tail call noalias dereferenceable_or_null(842) ptr @g_malloc(i64 noundef 842) #33
  tail call void @llvm.memcpy.p0.p0.i64(ptr noundef nonnull align 8 dereferenceable(784) %4, ptr noundef nonnull align 8 dereferenceable(784) @tcg_register_jit_int.img_template, i64 784, i1 false)
  %5 = getelementptr inbounds nuw i8, ptr %4, i64 80
  store i64 %3, ptr %5, align 8
  %6 = getelementptr inbounds nuw i8, ptr %4, i64 88
  store i64 %3, ptr %6, align 8
  %7 = getelementptr inbounds nuw i8, ptr %4, i64 104
  store i64 %1, ptr %7, align 8
  %8 = getelementptr inbounds nuw i8, ptr %4, i64 704
  %.07.i.i = getelementptr i8, ptr %4, i64 705
  %9 = tail call i32 @strcmp(ptr noundef nonnull dereferenceable(1) %.07.i.i, ptr noundef nonnull dereferenceable(6) @.str.140) #34
  %10 = icmp eq i32 %9, 0
  br i1 %10, label %find_string.exit.i, label %.lr.ph.i.i

.lr.ph.i.i:                                       ; preds = %2, %.lr.ph.i.i
  %.08.i.i = phi ptr [ %.0.i.i, %.lr.ph.i.i ], [ %.07.i.i, %2 ]
  %11 = tail call i64 @strlen(ptr noundef nonnull dereferenceable(1) %.08.i.i) #34
  %12 = getelementptr i8, ptr %.08.i.i, i64 %11
  %.0.i.i = getelementptr i8, ptr %12, i64 1
  %13 = tail call i32 @strcmp(ptr noundef nonnull dereferenceable(1) %.0.i.i, ptr noundef nonnull dereferenceable(6) @.str.140) #34
  %14 = icmp eq i32 %13, 0
  br i1 %14, label %find_string.exit.i, label %.lr.ph.i.i

find_string.exit.i:                               ; preds = %.lr.ph.i.i, %2
  %.0.lcssa.i.i = phi ptr [ %.07.i.i, %2 ], [ %.0.i.i, %.lr.ph.i.i ]
  %15 = ptrtoint ptr %.0.lcssa.i.i to i64
  %16 = ptrtoint ptr %8 to i64
  %17 = sub i64 %15, %16
  %18 = trunc i64 %17 to i32
  %19 = getelementptr inbounds nuw i8, ptr %4, i64 184
  store i32 %18, ptr %19, align 8
  %20 = getelementptr inbounds nuw i8, ptr %4, i64 200
  store i64 %3, ptr %20, align 8
  %21 = getelementptr inbounds nuw i8, ptr %4, i64 216
  store i64 %1, ptr %21, align 8
  %22 = tail call i32 @strcmp(ptr noundef nonnull dereferenceable(1) %.07.i.i, ptr noundef nonnull dereferenceable(12) @.str.141) #34
  %23 = icmp eq i32 %22, 0
  br i1 %23, label %find_string.exit58.i, label %.lr.ph.i54.i

.lr.ph.i54.i:                                     ; preds = %find_string.exit.i, %.lr.ph.i54.i
  %.08.i55.i = phi ptr [ %.0.i56.i, %.lr.ph.i54.i ], [ %.07.i.i, %find_string.exit.i ]
  %24 = tail call i64 @strlen(ptr noundef nonnull dereferenceable(1) %.08.i55.i) #34
  %25 = getelementptr i8, ptr %.08.i55.i, i64 %24
  %.0.i56.i = getelementptr i8, ptr %25, i64 1
  %26 = tail call i32 @strcmp(ptr noundef nonnull dereferenceable(1) %.0.i56.i, ptr noundef nonnull dereferenceable(12) @.str.141) #34
  %27 = icmp eq i32 %26, 0
  br i1 %27, label %find_string.exit58.i, label %.lr.ph.i54.i

find_string.exit58.i:                             ; preds = %.lr.ph.i54.i, %find_string.exit.i
  %.0.lcssa.i57.i = phi ptr [ %.07.i.i, %find_string.exit.i ], [ %.0.i56.i, %.lr.ph.i54.i ]
  %28 = ptrtoint ptr %.0.lcssa.i57.i to i64
  %29 = sub i64 %28, %16
  %30 = trunc i64 %29 to i32
  %31 = getelementptr inbounds nuw i8, ptr %4, i64 248
  store i32 %30, ptr %31, align 8
  %32 = tail call i32 @strcmp(ptr noundef nonnull dereferenceable(1) %.07.i.i, ptr noundef nonnull dereferenceable(14) @.str.142) #34
  %33 = icmp eq i32 %32, 0
  br i1 %33, label %find_string.exit64.i, label %.lr.ph.i60.i

.lr.ph.i60.i:                                     ; preds = %find_string.exit58.i, %.lr.ph.i60.i
  %.08.i61.i = phi ptr [ %.0.i62.i, %.lr.ph.i60.i ], [ %.07.i.i, %find_string.exit58.i ]
  %34 = tail call i64 @strlen(ptr noundef nonnull dereferenceable(1) %.08.i61.i) #34
  %35 = getelementptr i8, ptr %.08.i61.i, i64 %34
  %.0.i62.i = getelementptr i8, ptr %35, i64 1
  %36 = tail call i32 @strcmp(ptr noundef nonnull dereferenceable(1) %.0.i62.i, ptr noundef nonnull dereferenceable(14) @.str.142) #34
  %37 = icmp eq i32 %36, 0
  br i1 %37, label %find_string.exit64.i, label %.lr.ph.i60.i

find_string.exit64.i:                             ; preds = %.lr.ph.i60.i, %find_string.exit58.i
  %.0.lcssa.i63.i = phi ptr [ %.07.i.i, %find_string.exit58.i ], [ %.0.i62.i, %.lr.ph.i60.i ]
  %38 = ptrtoint ptr %.0.lcssa.i63.i to i64
  %39 = sub i64 %38, %16
  %40 = trunc i64 %39 to i32
  %41 = getelementptr inbounds nuw i8, ptr %4, i64 312
  store i32 %40, ptr %41, align 8
  %42 = tail call i32 @strcmp(ptr noundef nonnull dereferenceable(1) %.07.i.i, ptr noundef nonnull dereferenceable(13) @.str.143) #34
  %43 = icmp eq i32 %42, 0
  br i1 %43, label %find_string.exit70.i, label %.lr.ph.i66.i

.lr.ph.i66.i:                                     ; preds = %find_string.exit64.i, %.lr.ph.i66.i
  %.08.i67.i = phi ptr [ %.0.i68.i, %.lr.ph.i66.i ], [ %.07.i.i, %find_string.exit64.i ]
  %44 = tail call i64 @strlen(ptr noundef nonnull dereferenceable(1) %.08.i67.i) #34
  %45 = getelementptr i8, ptr %.08.i67.i, i64 %44
  %.0.i68.i = getelementptr i8, ptr %45, i64 1
  %46 = tail call i32 @strcmp(ptr noundef nonnull dereferenceable(1) %.0.i68.i, ptr noundef nonnull dereferenceable(13) @.str.143) #34
  %47 = icmp eq i32 %46, 0
  br i1 %47, label %find_string.exit70.i, label %.lr.ph.i66.i

find_string.exit70.i:                             ; preds = %.lr.ph.i66.i, %find_string.exit64.i
  %.0.lcssa.i69.i = phi ptr [ %.07.i.i, %find_string.exit64.i ], [ %.0.i68.i, %.lr.ph.i66.i ]
  %48 = ptrtoint ptr %.0.lcssa.i69.i to i64
  %49 = sub i64 %48, %16
  %50 = trunc i64 %49 to i32
  %51 = getelementptr inbounds nuw i8, ptr %4, i64 376
  store i32 %50, ptr %51, align 8
  %52 = getelementptr inbounds nuw i8, ptr %4, i64 408
  store i64 58, ptr %52, align 8
  %53 = tail call i32 @strcmp(ptr noundef nonnull dereferenceable(1) %.07.i.i, ptr noundef nonnull dereferenceable(8) @.str.144) #34
  %54 = icmp eq i32 %53, 0
  br i1 %54, label %find_string.exit76.i, label %.lr.ph.i72.i

.lr.ph.i72.i:                                     ; preds = %find_string.exit70.i, %.lr.ph.i72.i
  %.08.i73.i = phi ptr [ %.0.i74.i, %.lr.ph.i72.i ], [ %.07.i.i, %find_string.exit70.i ]
  %55 = tail call i64 @strlen(ptr noundef nonnull dereferenceable(1) %.08.i73.i) #34
  %56 = getelementptr i8, ptr %.08.i73.i, i64 %55
  %.0.i74.i = getelementptr i8, ptr %56, i64 1
  %57 = tail call i32 @strcmp(ptr noundef nonnull dereferenceable(1) %.0.i74.i, ptr noundef nonnull dereferenceable(8) @.str.144) #34
  %58 = icmp eq i32 %57, 0
  br i1 %58, label %find_string.exit76.i, label %.lr.ph.i72.i

find_string.exit76.i:                             ; preds = %.lr.ph.i72.i, %find_string.exit70.i
  %.0.lcssa.i75.i = phi ptr [ %.07.i.i, %find_string.exit70.i ], [ %.0.i74.i, %.lr.ph.i72.i ]
  %59 = ptrtoint ptr %.0.lcssa.i75.i to i64
  %60 = sub i64 %59, %16
  %61 = trunc i64 %60 to i32
  %62 = getelementptr inbounds nuw i8, ptr %4, i64 440
  store i32 %61, ptr %62, align 8
  %63 = tail call i32 @strcmp(ptr noundef nonnull dereferenceable(1) %.07.i.i, ptr noundef nonnull dereferenceable(8) @.str.145) #34
  %64 = icmp eq i32 %63, 0
  br i1 %64, label %find_string.exit82.i, label %.lr.ph.i78.i

.lr.ph.i78.i:                                     ; preds = %find_string.exit76.i, %.lr.ph.i78.i
  %.08.i79.i = phi ptr [ %.0.i80.i, %.lr.ph.i78.i ], [ %.07.i.i, %find_string.exit76.i ]
  %65 = tail call i64 @strlen(ptr noundef nonnull dereferenceable(1) %.08.i79.i) #34
  %66 = getelementptr i8, ptr %.08.i79.i, i64 %65
  %.0.i80.i = getelementptr i8, ptr %66, i64 1
  %67 = tail call i32 @strcmp(ptr noundef nonnull dereferenceable(1) %.0.i80.i, ptr noundef nonnull dereferenceable(8) @.str.145) #34
  %68 = icmp eq i32 %67, 0
  br i1 %68, label %find_string.exit82.i, label %.lr.ph.i78.i

find_string.exit82.i:                             ; preds = %.lr.ph.i78.i, %find_string.exit76.i
  %.0.lcssa.i81.i = phi ptr [ %.07.i.i, %find_string.exit76.i ], [ %.0.i80.i, %.lr.ph.i78.i ]
  %69 = ptrtoint ptr %.0.lcssa.i81.i to i64
  %70 = sub i64 %69, %16
  %71 = trunc i64 %70 to i32
  %72 = getelementptr inbounds nuw i8, ptr %4, i64 504
  store i32 %71, ptr %72, align 8
  %73 = tail call i32 @strcmp(ptr noundef nonnull dereferenceable(1) %.07.i.i, ptr noundef nonnull dereferenceable(16) @.str.146) #34
  %74 = icmp eq i32 %73, 0
  br i1 %74, label %tcg_register_jit_int.exit, label %.lr.ph.i84.i

.lr.ph.i84.i:                                     ; preds = %find_string.exit82.i, %.lr.ph.i84.i
  %.08.i85.i = phi ptr [ %.0.i86.i, %.lr.ph.i84.i ], [ %.07.i.i, %find_string.exit82.i ]
  %75 = tail call i64 @strlen(ptr noundef nonnull dereferenceable(1) %.08.i85.i) #34
  %76 = getelementptr i8, ptr %.08.i85.i, i64 %75
  %.0.i86.i = getelementptr i8, ptr %76, i64 1
  %77 = tail call i32 @strcmp(ptr noundef nonnull dereferenceable(1) %.0.i86.i, ptr noundef nonnull dereferenceable(16) @.str.146) #34
  %78 = icmp eq i32 %77, 0
  br i1 %78, label %tcg_register_jit_int.exit, label %.lr.ph.i84.i

tcg_register_jit_int.exit:                        ; preds = %.lr.ph.i84.i, %find_string.exit82.i
  %.0.lcssa.i87.i = phi ptr [ %.07.i.i, %find_string.exit82.i ], [ %.0.i86.i, %.lr.ph.i84.i ]
  %79 = ptrtoint ptr %.0.lcssa.i87.i to i64
  %80 = sub i64 %79, %16
  %81 = trunc i64 %80 to i32
  %82 = getelementptr inbounds nuw i8, ptr %4, i64 592
  store i32 %81, ptr %82, align 8
  %83 = getelementptr inbounds nuw i8, ptr %4, i64 600
  store i64 %3, ptr %83, align 8
  %84 = getelementptr inbounds nuw i8, ptr %4, i64 608
  store i64 %1, ptr %84, align 8
  %85 = getelementptr inbounds nuw i8, ptr %4, i64 630
  store i64 %3, ptr %85, align 2
  %86 = add i64 %1, %3
  %87 = getelementptr inbounds nuw i8, ptr %4, i64 638
  store i64 %86, ptr %87, align 2
  %88 = getelementptr inbounds nuw i8, ptr %4, i64 663
  store i64 %3, ptr %88, align 1
  %89 = getelementptr inbounds nuw i8, ptr %4, i64 671
  store i64 %86, ptr %89, align 1
  %90 = getelementptr inbounds nuw i8, ptr %4, i64 784
  tail call void @llvm.memcpy.p0.p0.i64(ptr noundef nonnull align 1 dereferenceable(58) %90, ptr noundef nonnull align 1 dereferenceable(58) @debug_frame, i64 noundef 58, i1 noundef false) #30
  %91 = getelementptr inbounds nuw i8, ptr %4, i64 808
  store i64 %3, ptr %91, align 1
  %92 = getelementptr inbounds nuw i8, ptr %4, i64 816
  store i64 %1, ptr %92, align 1
  store ptr %4, ptr getelementptr inbounds nuw (i8, ptr @tcg_register_jit_int.one_entry, i64 16), align 8
  store i64 842, ptr getelementptr inbounds nuw (i8, ptr @tcg_register_jit_int.one_entry, i64 24), align 8
  store i32 1, ptr getelementptr inbounds nuw (i8, ptr @__jit_debug_descriptor, i64 4), align 4
  store ptr @tcg_register_jit_int.one_entry, ptr getelementptr inbounds nuw (i8, ptr @__jit_debug_descriptor, i64 8), align 8
  store ptr @tcg_register_jit_int.one_entry, ptr getelementptr inbounds nuw (i8, ptr @__jit_debug_descriptor, i64 16), align 8
  tail call void @__jit_debug_register_code()
  ret void
}